target datalayout = "e-m:e-p270:32:32-p271:32:32-p272:64:64-i64:64-i128:128-f80:128-n8:16:32:64-S128"
target triple = "x86_64-pc-linux-gnu"

; Function Attrs: nounwind uwtable
define void @TrimTrailingZeros(ptr noundef %0) #0 {
  %2 = alloca ptr, align 8
  %3 = alloca i32, align 4
  store ptr %0, ptr %2, align 8
  call void @llvm.lifetime.start.p0(i64 4, ptr %3) #9
  %4 = load ptr, ptr %2, align 8
  %5 = call i64 @strlen(ptr noundef %4) #10
  %6 = trunc i64 %5 to i32
  store i32 %6, ptr %3, align 4
  br label %7

7:                                                ; preds = %27, %1
  %8 = load ptr, ptr %2, align 8
  %9 = load i32, ptr %3, align 4
  %10 = sext i32 %9 to i64
  %11 = getelementptr inbounds i8, ptr %8, i64 %10
  %12 = getelementptr inbounds i8, ptr %11, i64 -1
  %13 = load i8, ptr %12, align 1
  %14 = sext i8 %13 to i32
  %15 = icmp eq i32 %14, 48
  br i1 %15, label %16, label %25

16:                                               ; preds = %7
  %17 = load ptr, ptr %2, align 8
  %18 = load i32, ptr %3, align 4
  %19 = sext i32 %18 to i64
  %20 = getelementptr inbounds i8, ptr %17, i64 %19
  %21 = getelementptr inbounds i8, ptr %20, i64 -3
  %22 = load i8, ptr %21, align 1
  %23 = sext i8 %22 to i32
  %24 = icmp ne i32 %23, 46
  br label %25

25:                                               ; preds = %16, %7
  %26 = phi i1 [ false, %7 ], [ %24, %16 ]
  br i1 %26, label %27, label %34

27:                                               ; preds = %25
  %28 = load i32, ptr %3, align 4
  %29 = add i32 %28, -1
  store i32 %29, ptr %3, align 4
  %30 = load ptr, ptr %2, align 8
  %31 = load i32, ptr %3, align 4
  %32 = sext i32 %31 to i64
  %33 = getelementptr inbounds i8, ptr %30, i64 %32
  store i8 0, ptr %33, align 1
  br label %7, !llvm.loop !7

34:                                               ; preds = %25
  call void @llvm.lifetime.end.p0(i64 4, ptr %3) #9
  ret void
}