; Function Attrs: nofree nounwind memory(argmem: readwrite) uwtable
define void @TrimTrailingZeros(ptr noundef captures(none) %0) local_unnamed_addr #7 {
  %2 = tail call i64 @strlen(ptr noundef nonnull dereferenceable(1) %0) #16
  %sext = shl i64 %2, 32
  %3 = ashr exact i64 %sext, 32
  %4 = getelementptr inbounds i8, ptr %0, i64 %3
  %5 = getelementptr inbounds i8, ptr %4, i64 -1
  %6 = load i8, ptr %5, align 1
  %7 = icmp eq i8 %6, 48
  br i1 %7, label %.lr.ph.preheader, label %.critedge

.lr.ph.preheader:                                 ; preds = %1
  %8 = trunc i64 %2 to i32
  %invariant.gep = getelementptr i8, ptr %0, i64 -3
  br label %.lr.ph

.lr.ph:                                           ; preds = %.lr.ph.preheader, %11
  %9 = phi i64 [ %13, %11 ], [ %3, %.lr.ph.preheader ]
  %.07 = phi i32 [ %12, %11 ], [ %8, %.lr.ph.preheader ]
  %gep = getelementptr i8, ptr %invariant.gep, i64 %9
  %10 = load i8, ptr %gep, align 1
  %.not = icmp eq i8 %10, 46
  br i1 %.not, label %.critedge, label %11

11:                                               ; preds = %.lr.ph
  %12 = add i32 %.07, -1
  %13 = sext i32 %12 to i64
  %14 = getelementptr inbounds i8, ptr %0, i64 %13
  store i8 0, ptr %14, align 1
  %15 = getelementptr inbounds i8, ptr %14, i64 -1
  %16 = load i8, ptr %15, align 1
  %17 = icmp eq i8 %16, 48
  br i1 %17, label %.lr.ph, label %.critedge, !llvm.loop !5

.critedge:                                        ; preds = %.lr.ph, %11, %1
  ret void
}